target datalayout = "e-m:e-p270:32:32-p271:32:32-p272:64:64-i64:64-i128:128-f80:128-n8:16:32:64-S128"
target triple = "x86_64-pc-linux-gnu"

; Function Attrs: alwaysinline nounwind willreturn memory(none) uwtable
define internal i32 @av_clip_uintp2_c(i32 noundef %0, i32 noundef %1) #6 {
  %3 = alloca i32, align 4
  %4 = alloca i32, align 4
  %5 = alloca i32, align 4
  store i32 %0, ptr %4, align 4, !tbaa !30
  store i32 %1, ptr %5, align 4, !tbaa !30
  %6 = load i32, ptr %4, align 4, !tbaa !30
  %7 = load i32, ptr %5, align 4, !tbaa !30
  %8 = shl i32 1, %7
  %9 = sub i32 %8, 1
  %10 = xor i32 %9, -1
  %11 = and i32 %6, %10
  %12 = icmp ne i32 %11, 0
  br i1 %12, label %13, label %21

13:                                               ; preds = %2
  %14 = load i32, ptr %4, align 4, !tbaa !30
  %15 = xor i32 %14, -1
  %16 = ashr i32 %15, 31
  %17 = load i32, ptr %5, align 4, !tbaa !30
  %18 = shl i32 1, %17
  %19 = sub i32 %18, 1
  %20 = and i32 %16, %19
  store i32 %20, ptr %3, align 4
  br label %23

21:                                               ; preds = %2
  %22 = load i32, ptr %4, align 4, !tbaa !30
  store i32 %22, ptr %3, align 4
  br label %23

23:                                               ; preds = %21, %13
  %24 = load i32, ptr %3, align 4
  ret i32 %24
}

; Function Attrs: nounwind uwtable
define internal void @yuv2y212le_X_c(ptr noundef %0, ptr noundef %1, ptr noundef %2, i32 noundef %3, ptr noundef %4, ptr noundef %5, ptr noundef %6, i32 noundef %7, ptr noundef %8, ptr noundef %9, i32 noundef %10, i32 noundef %11) #4 {
  %13 = alloca ptr, align 8
  %14 = alloca ptr, align 8
  %15 = alloca ptr, align 8
  %16 = alloca i32, align 4
  %17 = alloca ptr, align 8
  %18 = alloca ptr, align 8
  %19 = alloca ptr, align 8
  %20 = alloca i32, align 4
  %21 = alloca ptr, align 8
  %22 = alloca ptr, align 8
  %23 = alloca i32, align 4
  %24 = alloca i32, align 4
  %25 = alloca i32, align 4
  %26 = alloca i32, align 4
  %27 = alloca i32, align 4
  %28 = alloca i32, align 4
  %29 = alloca i32, align 4
  %30 = alloca i32, align 4
  %31 = alloca i32, align 4
  %32 = alloca i32, align 4
  store ptr %0, ptr %13, align 8, !tbaa !4
  store ptr %1, ptr %14, align 8, !tbaa !45
  store ptr %2, ptr %15, align 8, !tbaa !47
  store i32 %3, ptr %16, align 4, !tbaa !30
  store ptr %4, ptr %17, align 8, !tbaa !45
  store ptr %5, ptr %18, align 8, !tbaa !47
  store ptr %6, ptr %19, align 8, !tbaa !47
  store i32 %7, ptr %20, align 4, !tbaa !30
  store ptr %8, ptr %21, align 8, !tbaa !47
  store ptr %9, ptr %22, align 8, !tbaa !46
  store i32 %10, ptr %23, align 4, !tbaa !30
  store i32 %11, ptr %24, align 4, !tbaa !30
  call void @llvm.lifetime.start.p0(i64 4, ptr %25) #8
  call void @llvm.lifetime.start.p0(i64 4, ptr %26) #8
  call void @llvm.lifetime.start.p0(i64 4, ptr %27) #8
  store i32 15, ptr %27, align 4, !tbaa !30
  call void @llvm.lifetime.start.p0(i64 4, ptr %28) #8
  store i32 4, ptr %28, align 4, !tbaa !30
  store i32 0, ptr %25, align 4, !tbaa !30
  br label %33

33:                                               ; preds = %201, %12
  %34 = load i32, ptr %25, align 4, !tbaa !30
  %35 = load i32, ptr %23, align 4, !tbaa !30
  %36 = add nsw i32 %35, 1
  %37 = ashr i32 %36, 1
  %38 = icmp slt i32 %34, %37
  br i1 %38, label %39, label %204

39:                                               ; preds = %33
  call void @llvm.lifetime.start.p0(i64 4, ptr %29) #8
  %40 = load i32, ptr %27, align 4, !tbaa !30
  %41 = sub nsw i32 %40, 1
  %42 = shl i32 1, %41
  store i32 %42, ptr %29, align 4, !tbaa !30
  call void @llvm.lifetime.start.p0(i64 4, ptr %30) #8
  %43 = load i32, ptr %27, align 4, !tbaa !30
  %44 = sub nsw i32 %43, 1
  %45 = shl i32 1, %44
  store i32 %45, ptr %30, align 4, !tbaa !30
  call void @llvm.lifetime.start.p0(i64 4, ptr %31) #8
  %46 = load i32, ptr %27, align 4, !tbaa !30
  %47 = sub nsw i32 %46, 1
  %48 = shl i32 1, %47
  store i32 %48, ptr %31, align 4, !tbaa !30
  call void @llvm.lifetime.start.p0(i64 4, ptr %32) #8
  %49 = load i32, ptr %27, align 4, !tbaa !30
  %50 = sub nsw i32 %49, 1
  %51 = shl i32 1, %50
  store i32 %51, ptr %32, align 4, !tbaa !30
  store i32 0, ptr %26, align 4, !tbaa !30
  br label %52

52:                                               ; preds = %98, %39
  %53 = load i32, ptr %26, align 4, !tbaa !30
  %54 = load i32, ptr %16, align 4, !tbaa !30
  %55 = icmp slt i32 %53, %54
  br i1 %55, label %56, label %101

56:                                               ; preds = %52
  %57 = load ptr, ptr %15, align 8, !tbaa !47
  %58 = load i32, ptr %26, align 4, !tbaa !30
  %59 = sext i32 %58 to i64
  %60 = getelementptr inbounds ptr, ptr %57, i64 %59
  %61 = load ptr, ptr %60, align 8, !tbaa !45
  %62 = load i32, ptr %25, align 4, !tbaa !30
  %63 = mul nsw i32 %62, 2
  %64 = sext i32 %63 to i64
  %65 = getelementptr inbounds i16, ptr %61, i64 %64
  %66 = load i16, ptr %65, align 2, !tbaa !49
  %67 = sext i16 %66 to i32
  %68 = load ptr, ptr %14, align 8, !tbaa !45
  %69 = load i32, ptr %26, align 4, !tbaa !30
  %70 = sext i32 %69 to i64
  %71 = getelementptr inbounds i16, ptr %68, i64 %70
  %72 = load i16, ptr %71, align 2, !tbaa !49
  %73 = sext i16 %72 to i32
  %74 = mul nsw i32 %67, %73
  %75 = load i32, ptr %29, align 4, !tbaa !30
  %76 = add nsw i32 %75, %74
  store i32 %76, ptr %29, align 4, !tbaa !30
  %77 = load ptr, ptr %15, align 8, !tbaa !47
  %78 = load i32, ptr %26, align 4, !tbaa !30
  %79 = sext i32 %78 to i64
  %80 = getelementptr inbounds ptr, ptr %77, i64 %79
  %81 = load ptr, ptr %80, align 8, !tbaa !45
  %82 = load i32, ptr %25, align 4, !tbaa !30
  %83 = mul nsw i32 %82, 2
  %84 = add nsw i32 %83, 1
  %85 = sext i32 %84 to i64
  %86 = getelementptr inbounds i16, ptr %81, i64 %85
  %87 = load i16, ptr %86, align 2, !tbaa !49
  %88 = sext i16 %87 to i32
  %89 = load ptr, ptr %14, align 8, !tbaa !45
  %90 = load i32, ptr %26, align 4, !tbaa !30
  %91 = sext i32 %90 to i64
  %92 = getelementptr inbounds i16, ptr %89, i64 %91
  %93 = load i16, ptr %92, align 2, !tbaa !49
  %94 = sext i16 %93 to i32
  %95 = mul nsw i32 %88, %94
  %96 = load i32, ptr %30, align 4, !tbaa !30
  %97 = add nsw i32 %96, %95
  store i32 %97, ptr %30, align 4, !tbaa !30
  br label %98

98:                                               ; preds = %56
  %99 = load i32, ptr %26, align 4, !tbaa !30
  %100 = add nsw i32 %99, 1
  store i32 %100, ptr %26, align 4, !tbaa !30
  br label %52, !llvm.loop !100

101:                                              ; preds = %52
  store i32 0, ptr %26, align 4, !tbaa !30
  br label %102

102:                                              ; preds = %145, %101
  %103 = load i32, ptr %26, align 4, !tbaa !30
  %104 = load i32, ptr %20, align 4, !tbaa !30
  %105 = icmp slt i32 %103, %104
  br i1 %105, label %106, label %148

106:                                              ; preds = %102
  %107 = load ptr, ptr %18, align 8, !tbaa !47
  %108 = load i32, ptr %26, align 4, !tbaa !30
  %109 = sext i32 %108 to i64
  %110 = getelementptr inbounds ptr, ptr %107, i64 %109
  %111 = load ptr, ptr %110, align 8, !tbaa !45
  %112 = load i32, ptr %25, align 4, !tbaa !30
  %113 = sext i32 %112 to i64
  %114 = getelementptr inbounds i16, ptr %111, i64 %113
  %115 = load i16, ptr %114, align 2, !tbaa !49
  %116 = sext i16 %115 to i32
  %117 = load ptr, ptr %17, align 8, !tbaa !45
  %118 = load i32, ptr %26, align 4, !tbaa !30
  %119 = sext i32 %118 to i64
  %120 = getelementptr inbounds i16, ptr %117, i64 %119
  %121 = load i16, ptr %120, align 2, !tbaa !49
  %122 = sext i16 %121 to i32
  %123 = mul nsw i32 %116, %122
  %124 = load i32, ptr %31, align 4, !tbaa !30
  %125 = add nsw i32 %124, %123
  store i32 %125, ptr %31, align 4, !tbaa !30
  %126 = load ptr, ptr %19, align 8, !tbaa !47
  %127 = load i32, ptr %26, align 4, !tbaa !30
  %128 = sext i32 %127 to i64
  %129 = getelementptr inbounds ptr, ptr %126, i64 %128
  %130 = load ptr, ptr %129, align 8, !tbaa !45
  %131 = load i32, ptr %25, align 4, !tbaa !30
  %132 = sext i32 %131 to i64
  %133 = getelementptr inbounds i16, ptr %130, i64 %132
  %134 = load i16, ptr %133, align 2, !tbaa !49
  %135 = sext i16 %134 to i32
  %136 = load ptr, ptr %17, align 8, !tbaa !45
  %137 = load i32, ptr %26, align 4, !tbaa !30
  %138 = sext i32 %137 to i64
  %139 = getelementptr inbounds i16, ptr %136, i64 %138
  %140 = load i16, ptr %139, align 2, !tbaa !49
  %141 = sext i16 %140 to i32
  %142 = mul nsw i32 %135, %141
  %143 = load i32, ptr %32, align 4, !tbaa !30
  %144 = add nsw i32 %143, %142
  store i32 %144, ptr %32, align 4, !tbaa !30
  br label %145

145:                                              ; preds = %106
  %146 = load i32, ptr %26, align 4, !tbaa !30
  %147 = add nsw i32 %146, 1
  store i32 %147, ptr %26, align 4, !tbaa !30
  br label %102, !llvm.loop !101

148:                                              ; preds = %102
  %149 = load i32, ptr %29, align 4, !tbaa !30
  %150 = load i32, ptr %27, align 4, !tbaa !30
  %151 = ashr i32 %149, %150
  %152 = call i32 @av_clip_uintp2_c(i32 noundef %151, i32 noundef 12) #10
  %153 = load i32, ptr %28, align 4, !tbaa !30
  %154 = shl i32 %152, %153
  %155 = trunc i32 %154 to i16
  %156 = load ptr, ptr %22, align 8, !tbaa !46
  %157 = load i32, ptr %25, align 4, !tbaa !30
  %158 = mul nsw i32 8, %157
  %159 = sext i32 %158 to i64
  %160 = getelementptr inbounds i8, ptr %156, i64 %159
  %161 = getelementptr inbounds i8, ptr %160, i64 0
  store i16 %155, ptr %161, align 1, !tbaa !51
  %162 = load i32, ptr %31, align 4, !tbaa !30
  %163 = load i32, ptr %27, align 4, !tbaa !30
  %164 = ashr i32 %162, %163
  %165 = call i32 @av_clip_uintp2_c(i32 noundef %164, i32 noundef 12) #10
  %166 = load i32, ptr %28, align 4, !tbaa !30
  %167 = shl i32 %165, %166
  %168 = trunc i32 %167 to i16
  %169 = load ptr, ptr %22, align 8, !tbaa !46
  %170 = load i32, ptr %25, align 4, !tbaa !30
  %171 = mul nsw i32 8, %170
  %172 = sext i32 %171 to i64
  %173 = getelementptr inbounds i8, ptr %169, i64 %172
  %174 = getelementptr inbounds i8, ptr %173, i64 2
  store i16 %168, ptr %174, align 1, !tbaa !51
  %175 = load i32, ptr %30, align 4, !tbaa !30
  %176 = load i32, ptr %27, align 4, !tbaa !30
  %177 = ashr i32 %175, %176
  %178 = call i32 @av_clip_uintp2_c(i32 noundef %177, i32 noundef 12) #10
  %179 = load i32, ptr %28, align 4, !tbaa !30
  %180 = shl i32 %178, %179
  %181 = trunc i32 %180 to i16
  %182 = load ptr, ptr %22, align 8, !tbaa !46
  %183 = load i32, ptr %25, align 4, !tbaa !30
  %184 = mul nsw i32 8, %183
  %185 = sext i32 %184 to i64
  %186 = getelementptr inbounds i8, ptr %182, i64 %185
  %187 = getelementptr inbounds i8, ptr %186, i64 4
  store i16 %181, ptr %187, align 1, !tbaa !51
  %188 = load i32, ptr %32, align 4, !tbaa !30
  %189 = load i32, ptr %27, align 4, !tbaa !30
  %190 = ashr i32 %188, %189
  %191 = call i32 @av_clip_uintp2_c(i32 noundef %190, i32 noundef 12) #10
  %192 = load i32, ptr %28, align 4, !tbaa !30
  %193 = shl i32 %191, %192
  %194 = trunc i32 %193 to i16
  %195 = load ptr, ptr %22, align 8, !tbaa !46
  %196 = load i32, ptr %25, align 4, !tbaa !30
  %197 = mul nsw i32 8, %196
  %198 = sext i32 %197 to i64
  %199 = getelementptr inbounds i8, ptr %195, i64 %198
  %200 = getelementptr inbounds i8, ptr %199, i64 6
  store i16 %194, ptr %200, align 1, !tbaa !51
  call void @llvm.lifetime.end.p0(i64 4, ptr %32) #8
  call void @llvm.lifetime.end.p0(i64 4, ptr %31) #8
  call void @llvm.lifetime.end.p0(i64 4, ptr %30) #8
  call void @llvm.lifetime.end.p0(i64 4, ptr %29) #8
  br label %201

201:                                              ; preds = %148
  %202 = load i32, ptr %25, align 4, !tbaa !30
  %203 = add nsw i32 %202, 1
  store i32 %203, ptr %25, align 4, !tbaa !30
  br label %33, !llvm.loop !102

204:                                              ; preds = %33
  call void @llvm.lifetime.end.p0(i64 4, ptr %28) #8
  call void @llvm.lifetime.end.p0(i64 4, ptr %27) #8
  call void @llvm.lifetime.end.p0(i64 4, ptr %26) #8
  call void @llvm.lifetime.end.p0(i64 4, ptr %25) #8
  ret void
}