; Function Attrs: nofree norecurse nosync nounwind memory(read, argmem: readwrite, inaccessiblemem: none) uwtable
define internal void @yuv2y212le_X_c(ptr readnone captures(none) %0, ptr noundef readonly captures(none) %1, ptr noundef readonly captures(none) %2, i32 noundef %3, ptr noundef readonly captures(none) %4, ptr noundef readonly captures(none) %5, ptr noundef readonly captures(none) %6, i32 noundef %7, ptr readnone captures(none) %8, ptr noundef writeonly captures(none) %9, i32 noundef %10, i32 %11) #3 {
  %13 = add nsw i32 %10, 1
  %14 = ashr i32 %13, 1
  %15 = icmp sgt i32 %14, 0
  br i1 %15, label %.preheader73.lr.ph, label %._crit_edge85

.preheader73.lr.ph:                               ; preds = %12
  %16 = icmp sgt i32 %3, 0
  %17 = icmp sgt i32 %7, 0
  %wide.trip.count98 = zext nneg i32 %14 to i64
  %wide.trip.count = zext nneg i32 %3 to i64
  %wide.trip.count93 = zext nneg i32 %7 to i64
  br label %.preheader73

.preheader73:                                     ; preds = %.preheader73.lr.ph, %._crit_edge
  %indvars.iv95 = phi i64 [ 0, %.preheader73.lr.ph ], [ %indvars.iv.next96, %._crit_edge ]
  br i1 %16, label %.lr.ph, label %.preheader

.lr.ph:                                           ; preds = %.preheader73
  %.idx = shl nuw nsw i64 %indvars.iv95, 2
  br label %20

.preheader.loopexit:                              ; preds = %20
  %18 = ashr i32 %30, 15
  %19 = ashr i32 %35, 15
  br label %.preheader

.preheader:                                       ; preds = %.preheader.loopexit, %.preheader73
  %.058.lcssa = phi i32 [ 0, %.preheader73 ], [ %18, %.preheader.loopexit ]
  %.057.lcssa = phi i32 [ 0, %.preheader73 ], [ %19, %.preheader.loopexit ]
  br i1 %17, label %.lr.ph81, label %._crit_edge

20:                                               ; preds = %.lr.ph, %20
  %indvars.iv = phi i64 [ 0, %.lr.ph ], [ %indvars.iv.next, %20 ]
  %.05776 = phi i32 [ 16384, %.lr.ph ], [ %35, %20 ]
  %.05875 = phi i32 [ 16384, %.lr.ph ], [ %30, %20 ]
  %21 = getelementptr inbounds nuw ptr, ptr %2, i64 %indvars.iv
  %22 = load ptr, ptr %21, align 8, !tbaa !43
  %23 = getelementptr inbounds nuw i8, ptr %22, i64 %.idx
  %24 = load i16, ptr %23, align 2, !tbaa !39
  %25 = sext i16 %24 to i32
  %26 = getelementptr inbounds nuw i16, ptr %1, i64 %indvars.iv
  %27 = load i16, ptr %26, align 2, !tbaa !39
  %28 = sext i16 %27 to i32
  %29 = mul nsw i32 %28, %25
  %30 = add nsw i32 %29, %.05875
  %31 = getelementptr inbounds nuw i8, ptr %23, i64 2
  %32 = load i16, ptr %31, align 2, !tbaa !39
  %33 = sext i16 %32 to i32
  %34 = mul nsw i32 %33, %28
  %35 = add nsw i32 %34, %.05776
  %indvars.iv.next = add nuw nsw i64 %indvars.iv, 1
  %exitcond.not = icmp eq i64 %indvars.iv.next, %wide.trip.count
  br i1 %exitcond.not, label %.preheader.loopexit, label %20, !llvm.loop !176

.lr.ph81:                                         ; preds = %.preheader, %.lr.ph81
  %indvars.iv90 = phi i64 [ %indvars.iv.next91, %.lr.ph81 ], [ 0, %.preheader ]
  %.080 = phi i32 [ %52, %.lr.ph81 ], [ 16384, %.preheader ]
  %.05679 = phi i32 [ %45, %.lr.ph81 ], [ 16384, %.preheader ]
  %36 = getelementptr inbounds nuw ptr, ptr %5, i64 %indvars.iv90
  %37 = load ptr, ptr %36, align 8, !tbaa !43
  %38 = getelementptr inbounds nuw i16, ptr %37, i64 %indvars.iv95
  %39 = load i16, ptr %38, align 2, !tbaa !39
  %40 = sext i16 %39 to i32
  %41 = getelementptr inbounds nuw i16, ptr %4, i64 %indvars.iv90
  %42 = load i16, ptr %41, align 2, !tbaa !39
  %43 = sext i16 %42 to i32
  %44 = mul nsw i32 %43, %40
  %45 = add nsw i32 %44, %.05679
  %46 = getelementptr inbounds nuw ptr, ptr %6, i64 %indvars.iv90
  %47 = load ptr, ptr %46, align 8, !tbaa !43
  %48 = getelementptr inbounds nuw i16, ptr %47, i64 %indvars.iv95
  %49 = load i16, ptr %48, align 2, !tbaa !39
  %50 = sext i16 %49 to i32
  %51 = mul nsw i32 %50, %43
  %52 = add nsw i32 %51, %.080
  %indvars.iv.next91 = add nuw nsw i64 %indvars.iv90, 1
  %exitcond94.not = icmp eq i64 %indvars.iv.next91, %wide.trip.count93
  br i1 %exitcond94.not, label %._crit_edge.loopexit, label %.lr.ph81, !llvm.loop !177

._crit_edge.loopexit:                             ; preds = %.lr.ph81
  %53 = ashr i32 %45, 15
  %54 = ashr i32 %52, 15
  br label %._crit_edge

._crit_edge:                                      ; preds = %._crit_edge.loopexit, %.preheader
  %.056.lcssa = phi i32 [ 0, %.preheader ], [ %53, %._crit_edge.loopexit ]
  %.0.lcssa = phi i32 [ 0, %.preheader ], [ %54, %._crit_edge.loopexit ]
  %55 = tail call i32 @llvm.smax.i32(i32 %.058.lcssa, i32 0)
  %56 = tail call i32 @llvm.umin.i32(i32 %55, i32 4095)
  %.tr = trunc nuw nsw i32 %56 to i16
  %57 = shl nuw i16 %.tr, 4
  %58 = shl nsw i64 %indvars.iv95, 3
  %59 = getelementptr inbounds nuw i8, ptr %9, i64 %58
  store i16 %57, ptr %59, align 1, !tbaa !41
  %60 = tail call i32 @llvm.smax.i32(i32 %.056.lcssa, i32 0)
  %61 = tail call i32 @llvm.umin.i32(i32 %60, i32 4095)
  %.tr61 = trunc nuw nsw i32 %61 to i16
  %62 = shl nuw i16 %.tr61, 4
  %63 = getelementptr inbounds nuw i8, ptr %59, i64 2
  store i16 %62, ptr %63, align 1, !tbaa !41
  %64 = tail call i32 @llvm.smax.i32(i32 %.057.lcssa, i32 0)
  %65 = tail call i32 @llvm.umin.i32(i32 %64, i32 4095)
  %.tr62 = trunc nuw nsw i32 %65 to i16
  %66 = shl nuw i16 %.tr62, 4
  %67 = getelementptr inbounds nuw i8, ptr %59, i64 4
  store i16 %66, ptr %67, align 1, !tbaa !41
  %68 = tail call i32 @llvm.smax.i32(i32 %.0.lcssa, i32 0)
  %69 = tail call i32 @llvm.umin.i32(i32 %68, i32 4095)
  %.tr63 = trunc nuw nsw i32 %69 to i16
  %70 = shl nuw i16 %.tr63, 4
  %71 = getelementptr inbounds nuw i8, ptr %59, i64 6
  store i16 %70, ptr %71, align 1, !tbaa !41
  %indvars.iv.next96 = add nuw nsw i64 %indvars.iv95, 1
  %exitcond99.not = icmp eq i64 %indvars.iv.next96, %wide.trip.count98
  br i1 %exitcond99.not, label %._crit_edge85, label %.preheader73, !llvm.loop !178

._crit_edge85:                                    ; preds = %._crit_edge, %12
  ret void
}